target datalayout = "e-m:e-p270:32:32-p271:32:32-p272:64:64-i64:64-i128:128-f80:128-n8:16:32:64-S128"
target triple = "x86_64-pc-linux-gnu"

; Function Attrs: alwaysinline nounwind uwtable
define internal void @sprite_v_template(ptr noundef %0, ptr noundef %1, ptr noundef %2, i32 noundef %3, i32 noundef %4, ptr noundef %5, ptr noundef %6, i32 noundef %7, i32 noundef %8, i32 noundef %9, i32 noundef %10) #3 {
  %12 = alloca ptr, align 8
  %13 = alloca ptr, align 8
  %14 = alloca ptr, align 8
  %15 = alloca i32, align 4
  %16 = alloca i32, align 4
  %17 = alloca ptr, align 8
  %18 = alloca ptr, align 8
  %19 = alloca i32, align 4
  %20 = alloca i32, align 4
  %21 = alloca i32, align 4
  %22 = alloca i32, align 4
  %23 = alloca i32, align 4
  %24 = alloca i32, align 4
  %25 = alloca i32, align 4
  %26 = alloca i32, align 4
  store ptr %0, ptr %12, align 8, !tbaa !45
  store ptr %1, ptr %13, align 8, !tbaa !45
  store ptr %2, ptr %14, align 8, !tbaa !45
  store i32 %3, ptr %15, align 4, !tbaa !38
  store i32 %4, ptr %16, align 4, !tbaa !38
  store ptr %5, ptr %17, align 8, !tbaa !45
  store ptr %6, ptr %18, align 8, !tbaa !45
  store i32 %7, ptr %19, align 4, !tbaa !38
  store i32 %8, ptr %20, align 4, !tbaa !38
  store i32 %9, ptr %21, align 4, !tbaa !38
  store i32 %10, ptr %22, align 4, !tbaa !38
  call void @llvm.lifetime.start.p0(i64 4, ptr %23) #7
  call void @llvm.lifetime.start.p0(i64 4, ptr %24) #7
  call void @llvm.lifetime.start.p0(i64 4, ptr %25) #7
  call void @llvm.lifetime.start.p0(i64 4, ptr %26) #7
  br label %27

27:                                               ; preds = %83, %11
  %28 = load i32, ptr %22, align 4, !tbaa !38
  %29 = add nsw i32 %28, -1
  store i32 %29, ptr %22, align 4, !tbaa !38
  %30 = icmp ne i32 %28, 0
  br i1 %30, label %31, label %88

31:                                               ; preds = %27
  %32 = load ptr, ptr %13, align 8, !tbaa !45
  %33 = getelementptr inbounds nuw i8, ptr %32, i32 1
  store ptr %33, ptr %13, align 8, !tbaa !45
  %34 = load i8, ptr %32, align 1, !tbaa !50
  %35 = zext i8 %34 to i32
  store i32 %35, ptr %23, align 4, !tbaa !38
  %36 = load i32, ptr %21, align 4, !tbaa !38
  %37 = icmp ne i32 %36, 0
  br i1 %37, label %38, label %51

38:                                               ; preds = %31
  %39 = load ptr, ptr %14, align 8, !tbaa !45
  %40 = getelementptr inbounds nuw i8, ptr %39, i32 1
  store ptr %40, ptr %14, align 8, !tbaa !45
  %41 = load i8, ptr %39, align 1, !tbaa !50
  %42 = zext i8 %41 to i32
  store i32 %42, ptr %24, align 4, !tbaa !38
  %43 = load i32, ptr %23, align 4, !tbaa !38
  %44 = load i32, ptr %24, align 4, !tbaa !38
  %45 = load i32, ptr %23, align 4, !tbaa !38
  %46 = sub nsw i32 %44, %45
  %47 = load i32, ptr %15, align 4, !tbaa !38
  %48 = mul nsw i32 %46, %47
  %49 = ashr i32 %48, 16
  %50 = add nsw i32 %43, %49
  store i32 %50, ptr %23, align 4, !tbaa !38
  br label %51

51:                                               ; preds = %38, %31
  %52 = load i32, ptr %16, align 4, !tbaa !38
  %53 = icmp ne i32 %52, 0
  br i1 %53, label %54, label %83

54:                                               ; preds = %51
  %55 = load ptr, ptr %17, align 8, !tbaa !45
  %56 = getelementptr inbounds nuw i8, ptr %55, i32 1
  store ptr %56, ptr %17, align 8, !tbaa !45
  %57 = load i8, ptr %55, align 1, !tbaa !50
  %58 = zext i8 %57 to i32
  store i32 %58, ptr %25, align 4, !tbaa !38
  %59 = load i32, ptr %21, align 4, !tbaa !38
  %60 = icmp sgt i32 %59, 1
  br i1 %60, label %61, label %74

61:                                               ; preds = %54
  %62 = load ptr, ptr %18, align 8, !tbaa !45
  %63 = getelementptr inbounds nuw i8, ptr %62, i32 1
  store ptr %63, ptr %18, align 8, !tbaa !45
  %64 = load i8, ptr %62, align 1, !tbaa !50
  %65 = zext i8 %64 to i32
  store i32 %65, ptr %26, align 4, !tbaa !38
  %66 = load i32, ptr %25, align 4, !tbaa !38
  %67 = load i32, ptr %26, align 4, !tbaa !38
  %68 = load i32, ptr %25, align 4, !tbaa !38
  %69 = sub nsw i32 %67, %68
  %70 = load i32, ptr %19, align 4, !tbaa !38
  %71 = mul nsw i32 %69, %70
  %72 = ashr i32 %71, 16
  %73 = add nsw i32 %66, %72
  store i32 %73, ptr %25, align 4, !tbaa !38
  br label %74

74:                                               ; preds = %61, %54
  %75 = load i32, ptr %23, align 4, !tbaa !38
  %76 = load i32, ptr %25, align 4, !tbaa !38
  %77 = load i32, ptr %23, align 4, !tbaa !38
  %78 = sub nsw i32 %76, %77
  %79 = load i32, ptr %20, align 4, !tbaa !38
  %80 = mul nsw i32 %78, %79
  %81 = ashr i32 %80, 16
  %82 = add nsw i32 %75, %81
  store i32 %82, ptr %23, align 4, !tbaa !38
  br label %83

83:                                               ; preds = %74, %51
  %84 = load i32, ptr %23, align 4, !tbaa !38
  %85 = trunc i32 %84 to i8
  %86 = load ptr, ptr %12, align 8, !tbaa !45
  %87 = getelementptr inbounds nuw i8, ptr %86, i32 1
  store ptr %87, ptr %12, align 8, !tbaa !45
  store i8 %85, ptr %86, align 1, !tbaa !50
  br label %27, !llvm.loop !108

88:                                               ; preds = %27
  call void @llvm.lifetime.end.p0(i64 4, ptr %26) #7
  call void @llvm.lifetime.end.p0(i64 4, ptr %25) #7
  call void @llvm.lifetime.end.p0(i64 4, ptr %24) #7
  call void @llvm.lifetime.end.p0(i64 4, ptr %23) #7
  ret void
}

; Function Attrs: nounwind uwtable
define internal void @sprite_v_double_onescale_c(ptr noundef %0, ptr noundef %1, ptr noundef %2, i32 noundef %3, ptr noundef %4, i32 noundef %5, i32 noundef %6) #1 {
  %8 = alloca ptr, align 8
  %9 = alloca ptr, align 8
  %10 = alloca ptr, align 8
  %11 = alloca i32, align 4
  %12 = alloca ptr, align 8
  %13 = alloca i32, align 4
  %14 = alloca i32, align 4
  store ptr %0, ptr %8, align 8, !tbaa !45
  store ptr %1, ptr %9, align 8, !tbaa !45
  store ptr %2, ptr %10, align 8, !tbaa !45
  store i32 %3, ptr %11, align 4, !tbaa !38
  store ptr %4, ptr %12, align 8, !tbaa !45
  store i32 %5, ptr %13, align 4, !tbaa !38
  store i32 %6, ptr %14, align 4, !tbaa !38
  %15 = load ptr, ptr %8, align 8, !tbaa !45
  %16 = load ptr, ptr %9, align 8, !tbaa !45
  %17 = load ptr, ptr %10, align 8, !tbaa !45
  %18 = load i32, ptr %11, align 4, !tbaa !38
  %19 = load ptr, ptr %12, align 8, !tbaa !45
  %20 = load i32, ptr %13, align 4, !tbaa !38
  %21 = load i32, ptr %14, align 4, !tbaa !38
  call void @sprite_v_template(ptr noundef %15, ptr noundef %16, ptr noundef %17, i32 noundef %18, i32 noundef 1, ptr noundef %19, ptr noundef null, i32 noundef 0, i32 noundef %20, i32 noundef 1, i32 noundef %21)
  ret void
}