; Function Attrs: nofree norecurse nosync nounwind memory(argmem: readwrite) uwtable
define internal void @sprite_v_double_onescale_c(ptr noundef writeonly captures(none) %0, ptr noundef readonly captures(none) %1, ptr noundef readonly captures(none) %2, i32 noundef %3, ptr noundef readonly captures(none) %4, i32 noundef %5, i32 noundef %6) #1 {
  %.not.i6 = icmp eq i32 %6, 0
  br i1 %.not.i6, label %sprite_v_template.exit, label %.lr.ph

.lr.ph:                                           ; preds = %7, %.lr.ph
  %.0.i11 = phi ptr [ %27, %.lr.ph ], [ %0, %7 ]
  %.022.i10 = phi ptr [ %9, %.lr.ph ], [ %1, %7 ]
  %.024.i9 = phi i32 [ %8, %.lr.ph ], [ %6, %7 ]
  %.025.i8 = phi ptr [ %12, %.lr.ph ], [ %2, %7 ]
  %.027.i7 = phi ptr [ %19, %.lr.ph ], [ %4, %7 ]
  %8 = add nsw i32 %.024.i9, -1
  %9 = getelementptr inbounds nuw i8, ptr %.022.i10, i64 1
  %10 = load i8, ptr %.022.i10, align 1, !tbaa !40
  %11 = zext i8 %10 to i32
  %12 = getelementptr inbounds nuw i8, ptr %.025.i8, i64 1
  %13 = load i8, ptr %.025.i8, align 1, !tbaa !40
  %14 = zext i8 %13 to i32
  %15 = sub nsw i32 %14, %11
  %16 = mul nsw i32 %15, %3
  %17 = ashr i32 %16, 16
  %18 = add nsw i32 %17, %11
  %19 = getelementptr inbounds nuw i8, ptr %.027.i7, i64 1
  %20 = load i8, ptr %.027.i7, align 1, !tbaa !40
  %21 = zext i8 %20 to i32
  %22 = sub nsw i32 %21, %18
  %23 = mul nsw i32 %22, %5
  %24 = lshr i32 %23, 16
  %25 = add nsw i32 %24, %18
  %26 = trunc i32 %25 to i8
  %27 = getelementptr inbounds nuw i8, ptr %.0.i11, i64 1
  store i8 %26, ptr %.0.i11, align 1, !tbaa !40
  %.not.i = icmp eq i32 %8, 0
  br i1 %.not.i, label %sprite_v_template.exit, label %.lr.ph, !llvm.loop !97

sprite_v_template.exit:                           ; preds = %.lr.ph, %7
  ret void
}